(dp0
S'L1:QM4:CurrentAO'
p1
F0.19902212
sS'L1:QM3:CurrentAO'
p2
F0.26232689
sS'L1:RG2:SC3:VL:CurrentAO'
p3
F23.26730199
sS'L1:RG2:SC3:HZ:CurrentAO'
p4
F0.17928924
sS'L1:RG2:SC1:VL:CurrentAO'
p5
F0.28814352
sS'L1:RG2:QM3:CurrentAO'
p6
F1.0759322
sS'L1:RG2:QM2:CurrentAO'
p7
F0.45274581
sS'L1:RG2:SC2:VL:CurrentAO'
p8
F0.51153454
sS'L1:RG2:SC2:HZ:CurrentAO'
p9
F0.89325898
sS'L1:RG2:QM1:CurrentAO'
p10
F0.60490349
sS'noise'
p11
F0.02681506907
sS'amp'
p12
F0.06722437645
sS'L1:RG2:QM4:CurrentAO'
p13
F2.24443239
sS'L1:QM5:CurrentAO'
p14
F0.76597295
s.