(dp0
S'L1:QM4:CurrentAO'
p1
F0.49166424
sS'L1:SC4:VL:CurrentAO'
p2
F0.48196332
sS'L1:QM3:CurrentAO'
p3
F0.26040774
sS'L1:RG2:SC3:VL:CurrentAO'
p4
F1.33922893
sS'L1:RG2:SC3:HZ:CurrentAO'
p5
F1.4013871
sS'L1:RG2:SC1:VL:CurrentAO'
p6
F0.62718935
sS'L1:RG2:QM3:CurrentAO'
p7
F1.10210818
sS'L1:SC4:HZ:CurrentAO'
p8
F0.25248549
sS'L1:RG2:QM2:CurrentAO'
p9
F0.60784499
sS'L1:RG2:SC2:VL:CurrentAO'
p10
F0.56503332
sS'L1:RG2:SC2:HZ:CurrentAO'
p11
F1.01084228
sS'L1:RG2:QM1:CurrentAO'
p12
F0.59948816
sS'noise'
p13
F0.003240525522
sS'L1:SC3:HZ:CurrentAO'
p14
F0.15361582
sS'L1:SC3:VL:CurrentAO'
p15
F0.13738563
sS'amp'
p16
F0.145770245
sS'L1:RG2:QM4:CurrentAO'
p17
F1.54694755
sS'L1:QM5:CurrentAO'
p18
F1.00648882
s.